target datalayout = "e-m:e-p270:32:32-p271:32:32-p272:64:64-i64:64-i128:128-f80:128-n8:16:32:64-S128"
target triple = "x86_64-pc-linux-gnu"

%"class.duckdb_snappy::SnappyDecompressor" = type <{ ptr, ptr, ptr, ptr, i32, i8, [5 x i8], [6 x i8] }>
%"class.duckdb_snappy::SnappyDecompressionValidator" = type { i64, i64 }

@_ZZN13duckdb_snappyL18LeftShiftOverflowsEhjE5masks = internal constant [32 x i8] c"\00\00\00\00\00\00\00\00\00\00\00\00\00\00\00\00\00\00\00\00\00\00\00\00\00\80\C0\E0\F0\F8\FC\FE", align 16
@.str.1 = private unnamed_addr constant [18 x i8] c"snappy_uncompress\00", align 1

; Function Attrs: inlinehint mustprogress nounwind uwtable
define linkonce_odr noundef zeroext i1 @_ZNK13duckdb_snappy28SnappyDecompressionValidator11CheckLengthEv(ptr noundef nonnull align 8 dereferenceable(16) %0) #3 comdat align 2 {
  %2 = alloca ptr, align 8
  store ptr %0, ptr %2, align 8, !tbaa !110
  %3 = load ptr, ptr %2, align 8
  %4 = getelementptr inbounds nuw %"class.duckdb_snappy::SnappyDecompressionValidator", ptr %3, i32 0, i32 0
  %5 = load i64, ptr %4, align 8, !tbaa !112
  %6 = getelementptr inbounds nuw %"class.duckdb_snappy::SnappyDecompressionValidator", ptr %3, i32 0, i32 1
  %7 = load i64, ptr %6, align 8, !tbaa !114
  %8 = icmp eq i64 %5, %7
  ret i1 %8
}

; Function Attrs: mustprogress nounwind uwtable
define linkonce_odr noundef zeroext i1 @_ZNK13duckdb_snappy18SnappyDecompressor3eofEv(ptr noundef nonnull align 8 dereferenceable(42) %0) #0 comdat align 2 {
  %2 = alloca ptr, align 8
  store ptr %0, ptr %2, align 8, !tbaa !59
  %3 = load ptr, ptr %2, align 8
  %4 = getelementptr inbounds nuw %"class.duckdb_snappy::SnappyDecompressor", ptr %3, i32 0, i32 5
  %5 = load i8, ptr %4, align 4, !tbaa !69, !range !42, !noundef !43
  %6 = trunc i8 %5 to i1
  ret i1 %6
}

; Function Attrs: inlinehint mustprogress nounwind uwtable
define linkonce_odr void @_ZN13duckdb_snappy28SnappyDecompressionValidator5FlushEv(ptr noundef nonnull align 8 dereferenceable(16) %0) #3 comdat align 2 {
  %2 = alloca ptr, align 8
  store ptr %0, ptr %2, align 8, !tbaa !110
  ret void
}

; Function Attrs: inlinehint mustprogress nounwind uwtable
define linkonce_odr void @_ZN13duckdb_snappy28SnappyDecompressionValidator17SetExpectedLengthEm(ptr noundef nonnull align 8 dereferenceable(16) %0, i64 noundef %1) #3 comdat align 2 {
  %3 = alloca ptr, align 8
  %4 = alloca i64, align 8
  store ptr %0, ptr %3, align 8, !tbaa !110
  store i64 %1, ptr %4, align 8, !tbaa !3
  %5 = load ptr, ptr %3, align 8
  %6 = load i64, ptr %4, align 8, !tbaa !3
  %7 = getelementptr inbounds nuw %"class.duckdb_snappy::SnappyDecompressionValidator", ptr %5, i32 0, i32 0
  store i64 %6, ptr %7, align 8, !tbaa !112
  ret void
}

; Function Attrs: inlinehint mustprogress nounwind uwtable
define internal void @_ZN13duckdb_snappyL6ReportEiPKcmm(i32 noundef %0, ptr noundef %1, i64 noundef %2, i64 noundef %3) #3 {
  %5 = alloca i32, align 4
  %6 = alloca ptr, align 8
  %7 = alloca i64, align 8
  %8 = alloca i64, align 8
  store i32 %0, ptr %5, align 4, !tbaa !12
  store ptr %1, ptr %6, align 8, !tbaa !7
  store i64 %2, ptr %7, align 8, !tbaa !3
  store i64 %3, ptr %8, align 8, !tbaa !3
  ret void
}

; Function Attrs: inlinehint mustprogress nounwind uwtable
define internal noundef zeroext i1 @_ZN13duckdb_snappyL18LeftShiftOverflowsEhj(i8 noundef zeroext %0, i32 noundef %1) #3 {
  %3 = alloca i8, align 1
  %4 = alloca i32, align 4
  store i8 %0, ptr %3, align 1, !tbaa !16
  store i32 %1, ptr %4, align 4, !tbaa !12
  %5 = load i8, ptr %3, align 1, !tbaa !16
  %6 = zext i8 %5 to i32
  %7 = load i32, ptr %4, align 4, !tbaa !12
  %8 = zext i32 %7 to i64
  %9 = getelementptr inbounds nuw [32 x i8], ptr @_ZZN13duckdb_snappyL18LeftShiftOverflowsEhjE5masks, i64 0, i64 %8
  %10 = load i8, ptr %9, align 1, !tbaa !16
  %11 = zext i8 %10 to i32
  %12 = and i32 %6, %11
  %13 = icmp ne i32 %12, 0
  ret i1 %13
}

; Function Attrs: mustprogress uwtable
define internal noundef zeroext i1 @_ZN13duckdb_snappyL25InternalUncompressAllTagsINS_28SnappyDecompressionValidatorEEEbPNS_18SnappyDecompressorEPT_jj(ptr noundef %0, ptr noundef %1, i32 noundef %2, i32 noundef %3) #1 {
  %5 = alloca ptr, align 8
  %6 = alloca ptr, align 8
  %7 = alloca i32, align 4
  %8 = alloca i32, align 4
  %9 = alloca i32, align 4
  store ptr %0, ptr %5, align 8, !tbaa !59
  store ptr %1, ptr %6, align 8, !tbaa !110
  store i32 %2, ptr %7, align 4, !tbaa !12
  store i32 %3, ptr %8, align 4, !tbaa !12
  call void @llvm.lifetime.start.p0(i64 4, ptr %9) #17
  store i32 0, ptr %9, align 4, !tbaa !12
  %10 = load i32, ptr %9, align 4, !tbaa !12
  %11 = load i32, ptr %7, align 4, !tbaa !12
  %12 = zext i32 %11 to i64
  %13 = load i32, ptr %8, align 4, !tbaa !12
  %14 = zext i32 %13 to i64
  call void @_ZN13duckdb_snappyL6ReportEiPKcmm(i32 noundef %10, ptr noundef @.str.1, i64 noundef %12, i64 noundef %14)
  %15 = load ptr, ptr %6, align 8, !tbaa !110
  %16 = load i32, ptr %8, align 4, !tbaa !12
  %17 = zext i32 %16 to i64
  call void @_ZN13duckdb_snappy28SnappyDecompressionValidator17SetExpectedLengthEm(ptr noundef nonnull align 8 dereferenceable(16) %15, i64 noundef %17)
  %18 = load ptr, ptr %5, align 8, !tbaa !59
  %19 = load ptr, ptr %6, align 8, !tbaa !110
  call void @_ZN13duckdb_snappy18SnappyDecompressor17DecompressAllTagsINS_28SnappyDecompressionValidatorEEEvPT_(ptr noundef nonnull align 8 dereferenceable(42) %18, ptr noundef %19)
  %20 = load ptr, ptr %6, align 8, !tbaa !110
  call void @_ZN13duckdb_snappy28SnappyDecompressionValidator5FlushEv(ptr noundef nonnull align 8 dereferenceable(16) %20)
  %21 = load ptr, ptr %5, align 8, !tbaa !59
  %22 = call noundef zeroext i1 @_ZNK13duckdb_snappy18SnappyDecompressor3eofEv(ptr noundef nonnull align 8 dereferenceable(42) %21)
  br i1 %22, label %23, label %26

23:                                               ; preds = %4
  %24 = load ptr, ptr %6, align 8, !tbaa !110
  %25 = call noundef zeroext i1 @_ZNK13duckdb_snappy28SnappyDecompressionValidator11CheckLengthEv(ptr noundef nonnull align 8 dereferenceable(16) %24)
  br label %26

26:                                               ; preds = %23, %4
  %27 = phi i1 [ false, %4 ], [ %25, %23 ]
  call void @llvm.lifetime.end.p0(i64 4, ptr %9) #17
  ret i1 %27
}

; Function Attrs: mustprogress nounwind uwtable
define linkonce_odr void @_ZN13duckdb_snappy18SnappyDecompressorD2Ev(ptr noundef nonnull align 8 dereferenceable(42) %0) unnamed_addr #0 comdat align 2 personality ptr @__gxx_personality_v0 {
  %2 = alloca ptr, align 8
  store ptr %0, ptr %2, align 8, !tbaa !59
  %3 = load ptr, ptr %2, align 8
  %4 = getelementptr inbounds nuw %"class.duckdb_snappy::SnappyDecompressor", ptr %3, i32 0, i32 0
  %5 = load ptr, ptr %4, align 8, !tbaa !65
  %6 = getelementptr inbounds nuw %"class.duckdb_snappy::SnappyDecompressor", ptr %3, i32 0, i32 4
  %7 = load i32, ptr %6, align 8, !tbaa !66
  %8 = zext i32 %7 to i64
  %9 = load ptr, ptr %5, align 8, !tbaa !67
  %10 = getelementptr inbounds ptr, ptr %9, i64 4
  %11 = load ptr, ptr %10, align 8
  invoke void %11(ptr noundef nonnull align 8 dereferenceable(8) %5, i64 noundef %8)
          to label %12 unwind label %13

12:                                               ; preds = %1
  ret void

13:                                               ; preds = %1
  %14 = landingpad { ptr, i32 }
          catch ptr null
  %15 = extractvalue { ptr, i32 } %14, 0
  call void @__clang_call_terminate(ptr %15) #20
  unreachable
}

; Function Attrs: mustprogress uwtable
define linkonce_odr noundef zeroext i1 @_ZN13duckdb_snappy18SnappyDecompressor22ReadUncompressedLengthEPj(ptr noundef nonnull align 8 dereferenceable(42) %0, ptr noundef %1) #1 comdat align 2 {
  %3 = alloca i1, align 1
  %4 = alloca ptr, align 8
  %5 = alloca ptr, align 8
  %6 = alloca i32, align 4
  %7 = alloca i32, align 4
  %8 = alloca i64, align 8
  %9 = alloca ptr, align 8
  %10 = alloca i8, align 1
  %11 = alloca i32, align 4
  store ptr %0, ptr %4, align 8, !tbaa !59
  store ptr %1, ptr %5, align 8, !tbaa !14
  %12 = load ptr, ptr %4, align 8
  %13 = load ptr, ptr %5, align 8, !tbaa !14
  store i32 0, ptr %13, align 4, !tbaa !12
  call void @llvm.lifetime.start.p0(i64 4, ptr %6) #17
  store i32 0, ptr %6, align 4, !tbaa !12
  br label %14

14:                                               ; preds = %62, %2
  br label %15

15:                                               ; preds = %14
  %16 = load i32, ptr %6, align 4, !tbaa !12
  %17 = icmp uge i32 %16, 32
  br i1 %17, label %18, label %19

18:                                               ; preds = %15
  store i1 false, ptr %3, align 1
  store i32 1, ptr %7, align 4
  br label %64

19:                                               ; preds = %15
  call void @llvm.lifetime.start.p0(i64 8, ptr %8) #17
  call void @llvm.lifetime.start.p0(i64 8, ptr %9) #17
  %20 = getelementptr inbounds nuw %"class.duckdb_snappy::SnappyDecompressor", ptr %12, i32 0, i32 0
  %21 = load ptr, ptr %20, align 8, !tbaa !65
  %22 = load ptr, ptr %21, align 8, !tbaa !67
  %23 = getelementptr inbounds ptr, ptr %22, i64 3
  %24 = load ptr, ptr %23, align 8
  %25 = call noundef ptr %24(ptr noundef nonnull align 8 dereferenceable(8) %21, ptr noundef %8)
  store ptr %25, ptr %9, align 8, !tbaa !7
  %26 = load i64, ptr %8, align 8, !tbaa !3
  %27 = icmp eq i64 %26, 0
  br i1 %27, label %28, label %29

28:                                               ; preds = %19
  store i1 false, ptr %3, align 1
  store i32 1, ptr %7, align 4
  br label %60

29:                                               ; preds = %19
  call void @llvm.lifetime.start.p0(i64 1, ptr %10) #17
  %30 = load ptr, ptr %9, align 8, !tbaa !7
  %31 = load i8, ptr %30, align 1, !tbaa !16
  store i8 %31, ptr %10, align 1, !tbaa !16
  %32 = getelementptr inbounds nuw %"class.duckdb_snappy::SnappyDecompressor", ptr %12, i32 0, i32 0
  %33 = load ptr, ptr %32, align 8, !tbaa !65
  %34 = load ptr, ptr %33, align 8, !tbaa !67
  %35 = getelementptr inbounds ptr, ptr %34, i64 4
  %36 = load ptr, ptr %35, align 8
  call void %36(ptr noundef nonnull align 8 dereferenceable(8) %33, i64 noundef 1)
  call void @llvm.lifetime.start.p0(i64 4, ptr %11) #17
  %37 = load i8, ptr %10, align 1, !tbaa !16
  %38 = zext i8 %37 to i32
  %39 = and i32 %38, 127
  store i32 %39, ptr %11, align 4, !tbaa !12
  %40 = load i32, ptr %11, align 4, !tbaa !12
  %41 = trunc i32 %40 to i8
  %42 = load i32, ptr %6, align 4, !tbaa !12
  %43 = call noundef zeroext i1 @_ZN13duckdb_snappyL18LeftShiftOverflowsEhj(i8 noundef zeroext %41, i32 noundef %42)
  br i1 %43, label %44, label %45

44:                                               ; preds = %29
  store i1 false, ptr %3, align 1
  store i32 1, ptr %7, align 4
  br label %59

45:                                               ; preds = %29
  %46 = load i32, ptr %11, align 4, !tbaa !12
  %47 = load i32, ptr %6, align 4, !tbaa !12
  %48 = shl i32 %46, %47
  %49 = load ptr, ptr %5, align 8, !tbaa !14
  %50 = load i32, ptr %49, align 4, !tbaa !12
  %51 = or i32 %50, %48
  store i32 %51, ptr %49, align 4, !tbaa !12
  %52 = load i8, ptr %10, align 1, !tbaa !16
  %53 = zext i8 %52 to i32
  %54 = icmp slt i32 %53, 128
  br i1 %54, label %55, label %56

55:                                               ; preds = %45
  store i32 3, ptr %7, align 4
  br label %59

56:                                               ; preds = %45
  %57 = load i32, ptr %6, align 4, !tbaa !12
  %58 = add i32 %57, 7
  store i32 %58, ptr %6, align 4, !tbaa !12
  store i32 0, ptr %7, align 4
  br label %59

59:                                               ; preds = %56, %55, %44
  call void @llvm.lifetime.end.p0(i64 4, ptr %11) #17
  call void @llvm.lifetime.end.p0(i64 1, ptr %10) #17
  br label %60

60:                                               ; preds = %59, %28
  call void @llvm.lifetime.end.p0(i64 8, ptr %9) #17
  call void @llvm.lifetime.end.p0(i64 8, ptr %8) #17
  %61 = load i32, ptr %7, align 4
  switch i32 %61, label %64 [
    i32 0, label %62
    i32 3, label %63
  ]

62:                                               ; preds = %60
  br label %14, !llvm.loop !72

63:                                               ; preds = %60
  store i1 true, ptr %3, align 1
  store i32 1, ptr %7, align 4
  br label %64

64:                                               ; preds = %63, %60, %18
  call void @llvm.lifetime.end.p0(i64 4, ptr %6) #17
  %65 = load i1, ptr %3, align 1
  ret i1 %65
}

; Function Attrs: mustprogress nounwind uwtable
define linkonce_odr void @_ZN13duckdb_snappy18SnappyDecompressorC2EPNS_6SourceE(ptr noundef nonnull align 8 dereferenceable(42) %0, ptr noundef %1) unnamed_addr #0 comdat align 2 {
  %3 = alloca ptr, align 8
  %4 = alloca ptr, align 8
  store ptr %0, ptr %3, align 8, !tbaa !59
  store ptr %1, ptr %4, align 8, !tbaa !71
  %5 = load ptr, ptr %3, align 8
  %6 = getelementptr inbounds nuw %"class.duckdb_snappy::SnappyDecompressor", ptr %5, i32 0, i32 0
  %7 = load ptr, ptr %4, align 8, !tbaa !71
  store ptr %7, ptr %6, align 8, !tbaa !65
  %8 = getelementptr inbounds nuw %"class.duckdb_snappy::SnappyDecompressor", ptr %5, i32 0, i32 1
  store ptr null, ptr %8, align 8, !tbaa !61
  %9 = getelementptr inbounds nuw %"class.duckdb_snappy::SnappyDecompressor", ptr %5, i32 0, i32 2
  store ptr null, ptr %9, align 8, !tbaa !64
  %10 = getelementptr inbounds nuw %"class.duckdb_snappy::SnappyDecompressor", ptr %5, i32 0, i32 4
  store i32 0, ptr %10, align 8, !tbaa !66
  %11 = getelementptr inbounds nuw %"class.duckdb_snappy::SnappyDecompressor", ptr %5, i32 0, i32 5
  store i8 0, ptr %11, align 4, !tbaa !69
  ret void
}

; Function Attrs: mustprogress uwtable
define internal noundef zeroext i1 @_ZN13duckdb_snappyL18InternalUncompressINS_28SnappyDecompressionValidatorEEEbPNS_6SourceEPT_(ptr noundef %0, ptr noundef %1) #1 personality ptr @__gxx_personality_v0 {
  %3 = alloca i1, align 1
  %4 = alloca ptr, align 8
  %5 = alloca ptr, align 8
  %6 = alloca %"class.duckdb_snappy::SnappyDecompressor", align 8
  %7 = alloca i32, align 4
  %8 = alloca ptr, align 8
  %9 = alloca i32, align 4
  %10 = alloca i32, align 4
  store ptr %0, ptr %4, align 8, !tbaa !71
  store ptr %1, ptr %5, align 8, !tbaa !110
  call void @llvm.lifetime.start.p0(i64 48, ptr %6) #17
  %11 = load ptr, ptr %4, align 8, !tbaa !71
  call void @_ZN13duckdb_snappy18SnappyDecompressorC2EPNS_6SourceE(ptr noundef nonnull align 8 dereferenceable(42) %6, ptr noundef %11)
  call void @llvm.lifetime.start.p0(i64 4, ptr %7) #17
  store i32 0, ptr %7, align 4, !tbaa !12
  %12 = invoke noundef zeroext i1 @_ZN13duckdb_snappy18SnappyDecompressor22ReadUncompressedLengthEPj(ptr noundef nonnull align 8 dereferenceable(42) %6, ptr noundef %7)
          to label %13 unwind label %15

13:                                               ; preds = %2
  br i1 %12, label %19, label %14

14:                                               ; preds = %13
  store i1 false, ptr %3, align 1
  store i32 1, ptr %10, align 4
  br label %31

15:                                               ; preds = %26, %19, %2
  %16 = landingpad { ptr, i32 }
          cleanup
  %17 = extractvalue { ptr, i32 } %16, 0
  store ptr %17, ptr %8, align 8
  %18 = extractvalue { ptr, i32 } %16, 1
  store i32 %18, ptr %9, align 4
  call void @llvm.lifetime.end.p0(i64 4, ptr %7) #17
  call void @_ZN13duckdb_snappy18SnappyDecompressorD2Ev(ptr noundef nonnull align 8 dereferenceable(42) %6) #17
  call void @llvm.lifetime.end.p0(i64 48, ptr %6) #17
  br label %33

19:                                               ; preds = %13
  %20 = load ptr, ptr %5, align 8, !tbaa !110
  %21 = load ptr, ptr %4, align 8, !tbaa !71
  %22 = load ptr, ptr %21, align 8, !tbaa !67
  %23 = getelementptr inbounds ptr, ptr %22, i64 2
  %24 = load ptr, ptr %23, align 8
  %25 = invoke noundef i64 %24(ptr noundef nonnull align 8 dereferenceable(8) %21)
          to label %26 unwind label %15

26:                                               ; preds = %19
  %27 = trunc i64 %25 to i32
  %28 = load i32, ptr %7, align 4, !tbaa !12
  %29 = invoke noundef zeroext i1 @_ZN13duckdb_snappyL25InternalUncompressAllTagsINS_28SnappyDecompressionValidatorEEEbPNS_18SnappyDecompressorEPT_jj(ptr noundef %6, ptr noundef %20, i32 noundef %27, i32 noundef %28)
          to label %30 unwind label %15

30:                                               ; preds = %26
  store i1 %29, ptr %3, align 1
  store i32 1, ptr %10, align 4
  br label %31

31:                                               ; preds = %30, %14
  call void @llvm.lifetime.end.p0(i64 4, ptr %7) #17
  call void @_ZN13duckdb_snappy18SnappyDecompressorD2Ev(ptr noundef nonnull align 8 dereferenceable(42) %6) #17
  call void @llvm.lifetime.end.p0(i64 48, ptr %6) #17
  %32 = load i1, ptr %3, align 1
  ret i1 %32

33:                                               ; preds = %15
  %34 = load ptr, ptr %8, align 8
  %35 = load i32, ptr %9, align 4
  %36 = insertvalue { ptr, i32 } poison, ptr %34, 0
  %37 = insertvalue { ptr, i32 } %36, i32 %35, 1
  resume { ptr, i32 } %37
}