; Function Attrs: mustprogress uwtable
define internal fastcc noundef zeroext i1 @_ZN13duckdb_snappyL18InternalUncompressINS_28SnappyDecompressionValidatorEEEbPNS_6SourceEPT_(ptr noundef %0, ptr noundef nonnull %1) unnamed_addr #3 personality ptr @__gxx_personality_v0 {
  %3 = alloca i64, align 8
  %4 = alloca %"class.duckdb_snappy::SnappyDecompressor", align 8
  call void @llvm.lifetime.start.p0(i64 48, ptr nonnull %4) #27
  store ptr %0, ptr %4, align 8, !tbaa !47
  %5 = getelementptr inbounds nuw i8, ptr %4, i64 8
  %6 = getelementptr inbounds nuw i8, ptr %4, i64 32
  store i32 0, ptr %6, align 8, !tbaa !48
  %7 = getelementptr inbounds nuw i8, ptr %4, i64 36
  store i8 0, ptr %7, align 4, !tbaa !51
  call void @llvm.memset.p0.i64(ptr noundef nonnull align 8 dereferenceable(16) %5, i8 0, i64 16, i1 false)
  br label %8

8:                                                ; preds = %30, %2
  %.09 = phi i32 [ 0, %2 ], [ %28, %30 ]
  %indvars.iv.i = phi i64 [ 0, %2 ], [ %indvars.iv.next.i, %30 ]
  call void @llvm.lifetime.start.p0(i64 8, ptr nonnull %3) #27
  %9 = load ptr, ptr %0, align 8, !tbaa !49
  %10 = getelementptr inbounds nuw i8, ptr %9, i64 24
  %11 = load ptr, ptr %10, align 8
  %12 = invoke noundef ptr %11(ptr noundef nonnull align 8 dereferenceable(8) %0, ptr noundef nonnull %3)
          to label %.noexc unwind label %.loopexit

.noexc:                                           ; preds = %8
  %13 = load i64, ptr %3, align 8, !tbaa !6
  %14 = icmp eq i64 %13, 0
  br i1 %14, label %_ZN13duckdb_snappy18SnappyDecompressor22ReadUncompressedLengthEPj.exit.thread12, label %15

15:                                               ; preds = %.noexc
  %16 = load i8, ptr %12, align 1, !tbaa !3
  %17 = load ptr, ptr %0, align 8, !tbaa !49
  %18 = getelementptr inbounds nuw i8, ptr %17, i64 32
  %19 = load ptr, ptr %18, align 8
  invoke void %19(ptr noundef nonnull align 8 dereferenceable(8) %0, i64 noundef 1)
          to label %.noexc5 unwind label %.loopexit

.noexc5:                                          ; preds = %15
  %20 = and i8 %16, 127
  %21 = getelementptr inbounds nuw [32 x i8], ptr @_ZZN13duckdb_snappyL18LeftShiftOverflowsEhjE5masks, i64 0, i64 %indvars.iv.i
  %22 = load i8, ptr %21, align 1, !tbaa !3
  %23 = and i8 %22, %20
  %.not.i = icmp eq i8 %23, 0
  br i1 %.not.i, label %24, label %_ZN13duckdb_snappy18SnappyDecompressor22ReadUncompressedLengthEPj.exit.thread12

24:                                               ; preds = %.noexc5
  %25 = zext nneg i8 %20 to i32
  %26 = trunc nuw nsw i64 %indvars.iv.i to i32
  %27 = shl i32 %25, %26
  %28 = or i32 %27, %.09
  %29 = icmp sgt i8 %16, -1
  br i1 %29, label %42, label %30

30:                                               ; preds = %24
  %indvars.iv.next.i = add nuw nsw i64 %indvars.iv.i, 7
  call void @llvm.lifetime.end.p0(i64 8, ptr nonnull %3) #27
  %31 = icmp samesign ugt i64 %indvars.iv.i, 24
  br i1 %31, label %_ZN13duckdb_snappyL25InternalUncompressAllTagsINS_28SnappyDecompressionValidatorEEEbPNS_18SnappyDecompressorEPT_jj.exit, label %8

_ZN13duckdb_snappy18SnappyDecompressor22ReadUncompressedLengthEPj.exit.thread12: ; preds = %.noexc, %.noexc5
  call void @llvm.lifetime.end.p0(i64 8, ptr nonnull %3) #27
  br label %_ZN13duckdb_snappyL25InternalUncompressAllTagsINS_28SnappyDecompressionValidatorEEEbPNS_18SnappyDecompressorEPT_jj.exit

.loopexit:                                        ; preds = %8, %15
  %lpad.loopexit = landingpad { ptr, i32 }
          cleanup
  br label %33

.loopexit.split-lp:                               ; preds = %42, %47
  %lpad.loopexit.split-lp = landingpad { ptr, i32 }
          cleanup
  %.pre = load ptr, ptr %4, align 8, !tbaa !47
  %.pre17 = load i32, ptr %6, align 8, !tbaa !48
  %32 = zext i32 %.pre17 to i64
  br label %33

33:                                               ; preds = %.loopexit.split-lp, %.loopexit
  %34 = phi i64 [ 0, %.loopexit ], [ %32, %.loopexit.split-lp ]
  %35 = phi ptr [ %0, %.loopexit ], [ %.pre, %.loopexit.split-lp ]
  %lpad.phi = phi { ptr, i32 } [ %lpad.loopexit, %.loopexit ], [ %lpad.loopexit.split-lp, %.loopexit.split-lp ]
  %36 = load ptr, ptr %35, align 8, !tbaa !49
  %37 = getelementptr inbounds nuw i8, ptr %36, i64 32
  %38 = load ptr, ptr %37, align 8
  invoke void %38(ptr noundef nonnull align 8 dereferenceable(8) %35, i64 noundef %34)
          to label %_ZN13duckdb_snappy18SnappyDecompressorD2Ev.exit unwind label %39

39:                                               ; preds = %33
  %40 = landingpad { ptr, i32 }
          catch ptr null
  %41 = extractvalue { ptr, i32 } %40, 0
  call void @__clang_call_terminate(ptr %41) #28
  unreachable

_ZN13duckdb_snappy18SnappyDecompressorD2Ev.exit:  ; preds = %33
  call void @llvm.lifetime.end.p0(i64 48, ptr nonnull %4) #27
  resume { ptr, i32 } %lpad.phi

42:                                               ; preds = %24
  call void @llvm.lifetime.end.p0(i64 8, ptr nonnull %3) #27
  %43 = load ptr, ptr %0, align 8, !tbaa !49
  %44 = getelementptr inbounds nuw i8, ptr %43, i64 16
  %45 = load ptr, ptr %44, align 8
  %46 = invoke noundef i64 %45(ptr noundef nonnull align 8 dereferenceable(8) %0)
          to label %47 unwind label %.loopexit.split-lp

47:                                               ; preds = %42
  %48 = zext i32 %28 to i64
  store i64 %48, ptr %1, align 8, !tbaa !81
  invoke void @_ZN13duckdb_snappy18SnappyDecompressor17DecompressAllTagsINS_28SnappyDecompressionValidatorEEEvPT_(ptr noundef nonnull align 8 dereferenceable(42) %4, ptr noundef nonnull %1)
          to label %.noexc6 unwind label %.loopexit.split-lp

.noexc6:                                          ; preds = %47
  %49 = load i8, ptr %7, align 4, !tbaa !51, !range !70, !noundef !71
  %50 = trunc nuw i8 %49 to i1
  br i1 %50, label %51, label %_ZN13duckdb_snappyL25InternalUncompressAllTagsINS_28SnappyDecompressionValidatorEEEbPNS_18SnappyDecompressorEPT_jj.exit

51:                                               ; preds = %.noexc6
  %52 = load i64, ptr %1, align 8, !tbaa !81
  %53 = getelementptr inbounds nuw i8, ptr %1, i64 8
  %54 = load i64, ptr %53, align 8, !tbaa !83
  %55 = icmp eq i64 %52, %54
  br label %_ZN13duckdb_snappyL25InternalUncompressAllTagsINS_28SnappyDecompressionValidatorEEEbPNS_18SnappyDecompressorEPT_jj.exit

_ZN13duckdb_snappyL25InternalUncompressAllTagsINS_28SnappyDecompressionValidatorEEEbPNS_18SnappyDecompressorEPT_jj.exit: ; preds = %30, %51, %.noexc6, %_ZN13duckdb_snappy18SnappyDecompressor22ReadUncompressedLengthEPj.exit.thread12
  %.0 = phi i1 [ false, %_ZN13duckdb_snappy18SnappyDecompressor22ReadUncompressedLengthEPj.exit.thread12 ], [ false, %.noexc6 ], [ %55, %51 ], [ false, %30 ]
  %56 = load ptr, ptr %4, align 8, !tbaa !47
  %57 = load i32, ptr %6, align 8, !tbaa !48
  %58 = zext i32 %57 to i64
  %59 = load ptr, ptr %56, align 8, !tbaa !49
  %60 = getelementptr inbounds nuw i8, ptr %59, i64 32
  %61 = load ptr, ptr %60, align 8
  invoke void %61(ptr noundef nonnull align 8 dereferenceable(8) %56, i64 noundef %58)
          to label %_ZN13duckdb_snappy18SnappyDecompressorD2Ev.exit7 unwind label %62

62:                                               ; preds = %_ZN13duckdb_snappyL25InternalUncompressAllTagsINS_28SnappyDecompressionValidatorEEEbPNS_18SnappyDecompressorEPT_jj.exit
  %63 = landingpad { ptr, i32 }
          catch ptr null
  %64 = extractvalue { ptr, i32 } %63, 0
  call void @__clang_call_terminate(ptr %64) #28
  unreachable

_ZN13duckdb_snappy18SnappyDecompressorD2Ev.exit7: ; preds = %_ZN13duckdb_snappyL25InternalUncompressAllTagsINS_28SnappyDecompressionValidatorEEEbPNS_18SnappyDecompressorEPT_jj.exit
  call void @llvm.lifetime.end.p0(i64 48, ptr nonnull %4) #27
  ret i1 %.0
}